target datalayout = "e-m:e-p270:32:32-p271:32:32-p272:64:64-i64:64-i128:128-f80:128-n8:16:32:64-S128"
target triple = "x86_64-pc-linux-gnu"

@rar5_signature_xor = internal global [8 x i8] c"\F3\C0\D3\80\BB\A6\A0\A1", align 1
@.str.4 = private unnamed_addr constant [5 x i8] c"\7FELF\00", align 1

; Function Attrs: nounwind uwtable
define internal i32 @read_ahead(ptr noundef %0, i64 noundef %1, ptr noundef %2) #0 {
  %4 = alloca i32, align 4
  %5 = alloca ptr, align 8
  %6 = alloca i64, align 8
  %7 = alloca ptr, align 8
  %8 = alloca i64, align 8
  %9 = alloca i32, align 4
  store ptr %0, ptr %5, align 8, !tbaa !13
  store i64 %1, ptr %6, align 8, !tbaa !42
  store ptr %2, ptr %7, align 8, !tbaa !79
  call void @llvm.lifetime.start.p0(i64 8, ptr %8) #11
  store i64 -1, ptr %8, align 8, !tbaa !42
  %10 = load ptr, ptr %7, align 8, !tbaa !79
  %11 = icmp ne ptr %10, null
  br i1 %11, label %13, label %12

12:                                               ; preds = %3
  store i32 0, ptr %4, align 4
  store i32 1, ptr %9, align 4
  br label %23

13:                                               ; preds = %3
  %14 = load ptr, ptr %5, align 8, !tbaa !13
  %15 = load i64, ptr %6, align 8, !tbaa !42
  %16 = call ptr @__archive_read_ahead(ptr noundef %14, i64 noundef %15, ptr noundef %8)
  %17 = load ptr, ptr %7, align 8, !tbaa !79
  store ptr %16, ptr %17, align 8, !tbaa !33
  %18 = load ptr, ptr %7, align 8, !tbaa !79
  %19 = load ptr, ptr %18, align 8, !tbaa !33
  %20 = icmp eq ptr %19, null
  br i1 %20, label %21, label %22

21:                                               ; preds = %13
  store i32 0, ptr %4, align 4
  store i32 1, ptr %9, align 4
  br label %23

22:                                               ; preds = %13
  store i32 1, ptr %4, align 4
  store i32 1, ptr %9, align 4
  br label %23

23:                                               ; preds = %22, %21, %12
  call void @llvm.lifetime.end.p0(i64 8, ptr %8) #11
  %24 = load i32, ptr %4, align 4
  ret i32 %24
}

; Function Attrs: nounwind uwtable
define internal void @rar5_signature(ptr noundef %0) #0 {
  %2 = alloca ptr, align 8
  %3 = alloca i64, align 8
  store ptr %0, ptr %2, align 8, !tbaa !33
  call void @llvm.lifetime.start.p0(i64 8, ptr %3) #11
  store i64 0, ptr %3, align 8, !tbaa !42
  br label %4

4:                                                ; preds = %17, %1
  %5 = load i64, ptr %3, align 8, !tbaa !42
  %6 = icmp ult i64 %5, 8
  br i1 %6, label %7, label %20

7:                                                ; preds = %4
  %8 = load i64, ptr %3, align 8, !tbaa !42
  %9 = getelementptr inbounds nuw [8 x i8], ptr @rar5_signature_xor, i64 0, i64 %8
  %10 = load i8, ptr %9, align 1, !tbaa !75
  %11 = zext i8 %10 to i32
  %12 = xor i32 %11, 161
  %13 = trunc i32 %12 to i8
  %14 = load ptr, ptr %2, align 8, !tbaa !33
  %15 = load i64, ptr %3, align 8, !tbaa !42
  %16 = getelementptr inbounds nuw i8, ptr %14, i64 %15
  store i8 %13, ptr %16, align 1, !tbaa !75
  br label %17

17:                                               ; preds = %7
  %18 = load i64, ptr %3, align 8, !tbaa !42
  %19 = add i64 %18, 1
  store i64 %19, ptr %3, align 8, !tbaa !42
  br label %4, !llvm.loop !78

20:                                               ; preds = %4
  call void @llvm.lifetime.end.p0(i64 8, ptr %3) #11
  ret void
}

; Function Attrs: nounwind uwtable
define internal i32 @bid_sfx(ptr noundef %0) #0 {
  %2 = alloca i32, align 4
  %3 = alloca ptr, align 8
  %4 = alloca ptr, align 8
  %5 = alloca i32, align 4
  %6 = alloca [8 x i8], align 1
  %7 = alloca i64, align 8
  %8 = alloca i64, align 8
  %9 = alloca i64, align 8
  %10 = alloca ptr, align 8
  store ptr %0, ptr %3, align 8, !tbaa !13
  call void @llvm.lifetime.start.p0(i64 8, ptr %4) #11
  %11 = load ptr, ptr %3, align 8, !tbaa !13
  %12 = call ptr @__archive_read_ahead(ptr noundef %11, i64 noundef 7, ptr noundef null)
  store ptr %12, ptr %4, align 8, !tbaa !33
  %13 = icmp eq ptr %12, null
  br i1 %13, label %14, label %15

14:                                               ; preds = %1
  store i32 -1, ptr %2, align 4
  store i32 1, ptr %5, align 4
  br label %87

15:                                               ; preds = %1
  %16 = load ptr, ptr %4, align 8, !tbaa !33
  %17 = getelementptr inbounds i8, ptr %16, i64 0
  %18 = load i8, ptr %17, align 1, !tbaa !75
  %19 = sext i8 %18 to i32
  %20 = icmp eq i32 %19, 77
  br i1 %20, label %21, label %27

21:                                               ; preds = %15
  %22 = load ptr, ptr %4, align 8, !tbaa !33
  %23 = getelementptr inbounds i8, ptr %22, i64 1
  %24 = load i8, ptr %23, align 1, !tbaa !75
  %25 = sext i8 %24 to i32
  %26 = icmp eq i32 %25, 90
  br i1 %26, label %31, label %27

27:                                               ; preds = %21, %15
  %28 = load ptr, ptr %4, align 8, !tbaa !33
  %29 = call i32 @memcmp(ptr noundef %28, ptr noundef @.str.4, i64 noundef 4) #13
  %30 = icmp eq i32 %29, 0
  br i1 %30, label %31, label %86

31:                                               ; preds = %27, %21
  call void @llvm.lifetime.start.p0(i64 8, ptr %6) #11
  call void @llvm.lifetime.start.p0(i64 8, ptr %7) #11
  store i64 65536, ptr %7, align 8, !tbaa !42
  call void @llvm.lifetime.start.p0(i64 8, ptr %8) #11
  store i64 4096, ptr %8, align 8, !tbaa !42
  call void @llvm.lifetime.start.p0(i64 8, ptr %9) #11
  %32 = getelementptr inbounds [8 x i8], ptr %6, i64 0, i64 0
  call void @rar5_signature(ptr noundef %32)
  br label %33

33:                                               ; preds = %81, %79, %31
  %34 = load i64, ptr %7, align 8, !tbaa !42
  %35 = load i64, ptr %8, align 8, !tbaa !42
  %36 = add nsw i64 %34, %35
  %37 = icmp sle i64 %36, 524288
  br i1 %37, label %38, label %82

38:                                               ; preds = %33
  call void @llvm.lifetime.start.p0(i64 8, ptr %10) #11
  %39 = load ptr, ptr %3, align 8, !tbaa !13
  %40 = load i64, ptr %7, align 8, !tbaa !42
  %41 = load i64, ptr %8, align 8, !tbaa !42
  %42 = add nsw i64 %40, %41
  %43 = call ptr @__archive_read_ahead(ptr noundef %39, i64 noundef %42, ptr noundef %9)
  store ptr %43, ptr %10, align 8, !tbaa !33
  %44 = load ptr, ptr %10, align 8, !tbaa !33
  %45 = icmp eq ptr %44, null
  br i1 %45, label %46, label %53

46:                                               ; preds = %38
  %47 = load i64, ptr %8, align 8, !tbaa !42
  %48 = ashr i64 %47, 1
  store i64 %48, ptr %8, align 8, !tbaa !42
  %49 = load i64, ptr %8, align 8, !tbaa !42
  %50 = icmp slt i64 %49, 64
  br i1 %50, label %51, label %52

51:                                               ; preds = %46
  store i32 0, ptr %2, align 4
  store i32 1, ptr %5, align 4
  br label %79

52:                                               ; preds = %46
  store i32 2, ptr %5, align 4
  br label %79, !llvm.loop !76

53:                                               ; preds = %38
  %54 = load ptr, ptr %10, align 8, !tbaa !33
  %55 = load i64, ptr %7, align 8, !tbaa !42
  %56 = getelementptr inbounds i8, ptr %54, i64 %55
  store ptr %56, ptr %4, align 8, !tbaa !33
  br label %57

57:                                               ; preds = %70, %53
  %58 = load ptr, ptr %4, align 8, !tbaa !33
  %59 = getelementptr inbounds i8, ptr %58, i64 8
  %60 = load ptr, ptr %10, align 8, !tbaa !33
  %61 = load i64, ptr %9, align 8, !tbaa !42
  %62 = getelementptr inbounds i8, ptr %60, i64 %61
  %63 = icmp ult ptr %59, %62
  br i1 %63, label %64, label %73

64:                                               ; preds = %57
  %65 = load ptr, ptr %4, align 8, !tbaa !33
  %66 = getelementptr inbounds [8 x i8], ptr %6, i64 0, i64 0
  %67 = call i32 @memcmp(ptr noundef %65, ptr noundef %66, i64 noundef 8) #13
  %68 = icmp eq i32 %67, 0
  br i1 %68, label %69, label %70

69:                                               ; preds = %64
  store i32 30, ptr %2, align 4
  store i32 1, ptr %5, align 4
  br label %79

70:                                               ; preds = %64
  %71 = load ptr, ptr %4, align 8, !tbaa !33
  %72 = getelementptr inbounds i8, ptr %71, i64 16
  store ptr %72, ptr %4, align 8, !tbaa !33
  br label %57, !llvm.loop !77

73:                                               ; preds = %57
  %74 = load ptr, ptr %4, align 8, !tbaa !33
  %75 = load ptr, ptr %10, align 8, !tbaa !33
  %76 = ptrtoint ptr %74 to i64
  %77 = ptrtoint ptr %75 to i64
  %78 = sub i64 %76, %77
  store i64 %78, ptr %7, align 8, !tbaa !42
  store i32 0, ptr %5, align 4
  br label %79

79:                                               ; preds = %73, %69, %52, %51
  call void @llvm.lifetime.end.p0(i64 8, ptr %10) #11
  %80 = load i32, ptr %5, align 4
  switch i32 %80, label %83 [
    i32 0, label %81
    i32 2, label %33
  ]

81:                                               ; preds = %79
  br label %33, !llvm.loop !76

82:                                               ; preds = %33
  store i32 0, ptr %5, align 4
  br label %83

83:                                               ; preds = %82, %79
  call void @llvm.lifetime.end.p0(i64 8, ptr %9) #11
  call void @llvm.lifetime.end.p0(i64 8, ptr %8) #11
  call void @llvm.lifetime.end.p0(i64 8, ptr %7) #11
  call void @llvm.lifetime.end.p0(i64 8, ptr %6) #11
  %84 = load i32, ptr %5, align 4
  switch i32 %84, label %87 [
    i32 0, label %85
  ]

85:                                               ; preds = %83
  br label %86

86:                                               ; preds = %85, %27
  store i32 0, ptr %2, align 4
  store i32 1, ptr %5, align 4
  br label %87

87:                                               ; preds = %86, %83, %14
  call void @llvm.lifetime.end.p0(i64 8, ptr %4) #11
  %88 = load i32, ptr %2, align 4
  ret i32 %88
}

; Function Attrs: nounwind uwtable
define internal i32 @bid_standard(ptr noundef %0) #0 {
  %2 = alloca i32, align 4
  %3 = alloca ptr, align 8
  %4 = alloca ptr, align 8
  %5 = alloca [8 x i8], align 1
  %6 = alloca i32, align 4
  store ptr %0, ptr %3, align 8, !tbaa !13
  call void @llvm.lifetime.start.p0(i64 8, ptr %4) #11
  call void @llvm.lifetime.start.p0(i64 8, ptr %5) #11
  %7 = getelementptr inbounds [8 x i8], ptr %5, i64 0, i64 0
  call void @rar5_signature(ptr noundef %7)
  %8 = load ptr, ptr %3, align 8, !tbaa !13
  %9 = call i32 @read_ahead(ptr noundef %8, i64 noundef 8, ptr noundef %4)
  %10 = icmp ne i32 %9, 0
  br i1 %10, label %12, label %11

11:                                               ; preds = %1
  store i32 -1, ptr %2, align 4
  store i32 1, ptr %6, align 4
  br label %19

12:                                               ; preds = %1
  %13 = getelementptr inbounds [8 x i8], ptr %5, i64 0, i64 0
  %14 = load ptr, ptr %4, align 8, !tbaa !33
  %15 = call i32 @memcmp(ptr noundef %13, ptr noundef %14, i64 noundef 8) #13
  %16 = icmp ne i32 %15, 0
  br i1 %16, label %18, label %17

17:                                               ; preds = %12
  store i32 30, ptr %2, align 4
  store i32 1, ptr %6, align 4
  br label %19

18:                                               ; preds = %12
  store i32 -1, ptr %2, align 4
  store i32 1, ptr %6, align 4
  br label %19

19:                                               ; preds = %18, %17, %11
  call void @llvm.lifetime.end.p0(i64 8, ptr %5) #11
  call void @llvm.lifetime.end.p0(i64 8, ptr %4) #11
  %20 = load i32, ptr %2, align 4
  ret i32 %20
}

; Function Attrs: nounwind uwtable
define internal i32 @rar5_bid(ptr noundef %0, i32 noundef %1) #0 {
  %3 = alloca i32, align 4
  %4 = alloca ptr, align 8
  %5 = alloca i32, align 4
  %6 = alloca i32, align 4
  %7 = alloca i32, align 4
  store ptr %0, ptr %4, align 8, !tbaa !13
  store i32 %1, ptr %5, align 4, !tbaa !9
  call void @llvm.lifetime.start.p0(i64 4, ptr %6) #11
  %8 = load i32, ptr %5, align 4, !tbaa !9
  %9 = icmp sgt i32 %8, 30
  br i1 %9, label %10, label %11

10:                                               ; preds = %2
  store i32 -1, ptr %3, align 4
  store i32 1, ptr %7, align 4
  br label %26

11:                                               ; preds = %2
  %12 = load ptr, ptr %4, align 8, !tbaa !13
  %13 = call i32 @bid_standard(ptr noundef %12)
  store i32 %13, ptr %6, align 4, !tbaa !9
  %14 = load i32, ptr %6, align 4, !tbaa !9
  %15 = icmp sgt i32 %14, -1
  br i1 %15, label %16, label %18

16:                                               ; preds = %11
  %17 = load i32, ptr %6, align 4, !tbaa !9
  store i32 %17, ptr %3, align 4
  store i32 1, ptr %7, align 4
  br label %26

18:                                               ; preds = %11
  %19 = load ptr, ptr %4, align 8, !tbaa !13
  %20 = call i32 @bid_sfx(ptr noundef %19)
  store i32 %20, ptr %6, align 4, !tbaa !9
  %21 = load i32, ptr %6, align 4, !tbaa !9
  %22 = icmp sgt i32 %21, -1
  br i1 %22, label %23, label %25

23:                                               ; preds = %18
  %24 = load i32, ptr %6, align 4, !tbaa !9
  store i32 %24, ptr %3, align 4
  store i32 1, ptr %7, align 4
  br label %26

25:                                               ; preds = %18
  store i32 -1, ptr %3, align 4
  store i32 1, ptr %7, align 4
  br label %26

26:                                               ; preds = %25, %23, %16, %10
  call void @llvm.lifetime.end.p0(i64 4, ptr %6) #11
  %27 = load i32, ptr %3, align 4
  ret i32 %27
}