; Function Attrs: nounwind uwtable
define internal range(i32 -1, 31) i32 @rar5_bid(ptr noundef %0, i32 noundef %1) #0 {
  %3 = alloca [8 x i8], align 1
  %4 = alloca i64, align 8
  %5 = alloca i64, align 8
  %6 = alloca [8 x i8], align 1
  %7 = icmp sgt i32 %1, 30
  br i1 %7, label %bid_sfx.exit, label %8

8:                                                ; preds = %2
  call void @llvm.lifetime.start.p0(i64 8, ptr nonnull %6) #15
  br label %9

9:                                                ; preds = %9, %8
  %.04.i.i = phi i64 [ 0, %8 ], [ %14, %9 ]
  %10 = getelementptr inbounds nuw [8 x i8], ptr @rar5_signature_xor, i64 0, i64 %.04.i.i
  %11 = load i8, ptr %10, align 1, !tbaa !26
  %12 = xor i8 %11, -95
  %13 = getelementptr inbounds nuw i8, ptr %6, i64 %.04.i.i
  store i8 %12, ptr %13, align 1, !tbaa !26
  %14 = add nuw nsw i64 %.04.i.i, 1
  %exitcond.not.i.i = icmp eq i64 %14, 8
  br i1 %exitcond.not.i.i, label %rar5_signature.exit.i, label %9, !llvm.loop !27

rar5_signature.exit.i:                            ; preds = %9
  call void @llvm.lifetime.start.p0(i64 8, ptr nonnull %5) #15
  store i64 -1, ptr %5, align 8, !tbaa !29
  %15 = call ptr @__archive_read_ahead(ptr noundef %0, i64 noundef 8, ptr noundef nonnull %5) #15
  %.not2.i = icmp eq ptr %15, null
  call void @llvm.lifetime.end.p0(i64 8, ptr nonnull %5) #15
  br i1 %.not2.i, label %17, label %16

16:                                               ; preds = %rar5_signature.exit.i
  %bcmp.i = call i32 @bcmp(ptr noundef nonnull dereferenceable(8) %6, ptr noundef nonnull dereferenceable(8) %15, i64 8)
  %.not1.i = icmp eq i32 %bcmp.i, 0
  br i1 %.not1.i, label %bid_standard.exit, label %17

bid_standard.exit:                                ; preds = %16
  call void @llvm.lifetime.end.p0(i64 8, ptr nonnull %6) #15
  br label %bid_sfx.exit

17:                                               ; preds = %rar5_signature.exit.i, %16
  call void @llvm.lifetime.end.p0(i64 8, ptr nonnull %6) #15
  %18 = call ptr @__archive_read_ahead(ptr noundef %0, i64 noundef 7, ptr noundef null) #15
  %19 = icmp eq ptr %18, null
  br i1 %19, label %bid_sfx.exit, label %20

20:                                               ; preds = %17
  %21 = load i8, ptr %18, align 1, !tbaa !26
  %22 = icmp eq i8 %21, 77
  br i1 %22, label %23, label %27

23:                                               ; preds = %20
  %24 = getelementptr inbounds nuw i8, ptr %18, i64 1
  %25 = load i8, ptr %24, align 1, !tbaa !26
  %26 = icmp eq i8 %25, 90
  br i1 %26, label %29, label %27

27:                                               ; preds = %23, %20
  %bcmp.i9 = call i32 @bcmp(ptr noundef nonnull dereferenceable(4) %18, ptr noundef nonnull dereferenceable(4) @.str.4, i64 4)
  %28 = icmp eq i32 %bcmp.i9, 0
  br i1 %28, label %29, label %bid_sfx.exit

29:                                               ; preds = %27, %23
  call void @llvm.lifetime.start.p0(i64 8, ptr nonnull %3) #15
  call void @llvm.lifetime.start.p0(i64 8, ptr nonnull %4) #15
  br label %30

30:                                               ; preds = %30, %29
  %.04.i.i11 = phi i64 [ 0, %29 ], [ %35, %30 ]
  %31 = getelementptr inbounds nuw [8 x i8], ptr @rar5_signature_xor, i64 0, i64 %.04.i.i11
  %32 = load i8, ptr %31, align 1, !tbaa !26
  %33 = xor i8 %32, -95
  %34 = getelementptr inbounds nuw i8, ptr %3, i64 %.04.i.i11
  store i8 %33, ptr %34, align 1, !tbaa !26
  %35 = add nuw nsw i64 %.04.i.i11, 1
  %exitcond.not.i.i12 = icmp eq i64 %35, 8
  br i1 %exitcond.not.i.i12, label %rar5_signature.exit.preheader.i, label %30, !llvm.loop !27

rar5_signature.exit.preheader.i:                  ; preds = %30, %rar5_signature.exit.i13
  %36 = phi i64 [ %56, %rar5_signature.exit.i13 ], [ 69632, %30 ]
  %.02247.i = phi i64 [ %.123.i, %rar5_signature.exit.i13 ], [ 4096, %30 ]
  %.02446.i = phi i64 [ %.125.i, %rar5_signature.exit.i13 ], [ 65536, %30 ]
  %37 = call ptr @__archive_read_ahead(ptr noundef %0, i64 noundef %36, ptr noundef nonnull %4) #15
  %38 = icmp eq ptr %37, null
  br i1 %38, label %39, label %42

39:                                               ; preds = %rar5_signature.exit.preheader.i
  %40 = lshr i64 %.02247.i, 1
  %41 = icmp samesign ult i64 %.02247.i, 128
  br i1 %41, label %.sink.split.i, label %rar5_signature.exit.i13

42:                                               ; preds = %rar5_signature.exit.preheader.i
  %43 = getelementptr inbounds i8, ptr %37, i64 %.02446.i
  %44 = load i64, ptr %4, align 8, !tbaa !29
  %45 = getelementptr inbounds i8, ptr %37, i64 %44
  %46 = getelementptr inbounds nuw i8, ptr %43, i64 8
  %47 = icmp ult ptr %46, %45
  br i1 %47, label %.lr.ph.i, label %._crit_edge.i

.lr.ph.i:                                         ; preds = %42, %49
  %.02845.i = phi ptr [ %50, %49 ], [ %43, %42 ]
  %bcmp34.i = call i32 @bcmp(ptr noundef nonnull dereferenceable(8) %.02845.i, ptr noundef nonnull dereferenceable(8) %3, i64 8)
  %48 = icmp eq i32 %bcmp34.i, 0
  br i1 %48, label %.sink.split.i, label %49

49:                                               ; preds = %.lr.ph.i
  %50 = getelementptr inbounds nuw i8, ptr %.02845.i, i64 16
  %51 = getelementptr inbounds nuw i8, ptr %.02845.i, i64 24
  %52 = icmp ult ptr %51, %45
  br i1 %52, label %.lr.ph.i, label %._crit_edge.i, !llvm.loop !30

._crit_edge.i:                                    ; preds = %49, %42
  %.028.lcssa.i = phi ptr [ %43, %42 ], [ %50, %49 ]
  %53 = ptrtoint ptr %.028.lcssa.i to i64
  %54 = ptrtoint ptr %37 to i64
  %55 = sub i64 %53, %54
  br label %rar5_signature.exit.i13

rar5_signature.exit.i13:                          ; preds = %._crit_edge.i, %39
  %.125.i = phi i64 [ %55, %._crit_edge.i ], [ %.02446.i, %39 ]
  %.123.i = phi i64 [ %.02247.i, %._crit_edge.i ], [ %40, %39 ]
  %56 = add nsw i64 %.123.i, %.125.i
  %57 = icmp slt i64 %56, 524289
  br i1 %57, label %rar5_signature.exit.preheader.i, label %.sink.split.i

.sink.split.i:                                    ; preds = %rar5_signature.exit.i13, %39, %.lr.ph.i
  %.0.ph.i = phi i32 [ 30, %.lr.ph.i ], [ 0, %39 ], [ 0, %rar5_signature.exit.i13 ]
  call void @llvm.lifetime.end.p0(i64 8, ptr nonnull %4) #15
  call void @llvm.lifetime.end.p0(i64 8, ptr nonnull %3) #15
  br label %bid_sfx.exit

bid_sfx.exit:                                     ; preds = %17, %27, %.sink.split.i, %bid_standard.exit, %2
  %.0 = phi i32 [ -1, %2 ], [ 30, %bid_standard.exit ], [ -1, %17 ], [ %.0.ph.i, %.sink.split.i ], [ 0, %27 ]
  ret i32 %.0
}